target datalayout = "e-m:e-p270:32:32-p271:32:32-p272:64:64-i64:64-i128:128-f80:128-n8:16:32:64-S128"
target triple = "x86_64-pc-linux-gnu"

%struct._zend_executor_globals = type { %struct._zval_struct, %struct._zval_struct, [32 x ptr], ptr, ptr, %struct._zend_array, %struct._zend_array, ptr, i32, i8, %struct._zval_struct, i32, ptr, ptr, ptr, ptr, ptr, ptr, i64, ptr, ptr, i32, ptr, i32, i64, i32, i32, i32, i8, i8, %struct.zend_atomic_bool_s, %struct.zend_atomic_bool_s, ptr, i64, ptr, ptr, %struct._zend_array, %struct._zend_array, i32, i8, %struct._zval_struct, %struct._zval_struct, %struct._zend_stack, %struct._zend_stack, %struct._zend_stack, ptr, i32, i32, i64, ptr, ptr, ptr, %struct._zend_objects_store, %struct._zend_lazy_objects_store, ptr, ptr, ptr, [3 x %struct._zend_op], ptr, i8, i8, i64, i32, i32, ptr, [16 x %struct._HashTableIterator], ptr, %union._zend_function, %struct._zend_op, %struct._zend_array, i64, %struct.zend_get_gc_buffer, ptr, ptr, ptr, i64, i8, i32, ptr, ptr, i64, %struct._zend_call_stack, i64, i64, %struct._zend_strtod_state, [6 x ptr] }
%struct.zend_atomic_bool_s = type { i8 }
%struct._zval_struct = type { %union._zend_value, %union.anon, %union.anon.2 }
%union._zend_value = type { i64 }
%union.anon = type { i32 }
%union.anon.2 = type { i32 }
%struct._zend_stack = type { i32, i32, i32, ptr }
%struct._zend_objects_store = type { ptr, i32, i32, i32 }
%struct._zend_lazy_objects_store = type { %struct._zend_array }
%struct._HashTableIterator = type { ptr, i32, i32 }
%union._zend_function = type { %struct._zend_op_array }
%struct._zend_op_array = type { i8, [3 x i8], i32, ptr, ptr, ptr, i32, i32, ptr, ptr, ptr, ptr, i32, ptr, i32, i32, i32, ptr, ptr, ptr, ptr, ptr, i32, i32, ptr, ptr, ptr, i32, i32, i32, i32, ptr, ptr, [6 x ptr] }
%struct._zend_op = type { ptr, %union._znode_op, %union._znode_op, %union._znode_op, i32, i32, i8, i8, i8, i8 }
%union._znode_op = type { i32 }
%struct._zend_array = type { %struct._zend_refcounted_h, %union.anon.4, i32, %union.anon.6, i32, i32, i32, i32, i64, ptr }
%struct._zend_refcounted_h = type { i32, %union.anon.3 }
%union.anon.3 = type { i32 }
%union.anon.4 = type { i32 }
%union.anon.6 = type { ptr }
%struct.zend_get_gc_buffer = type { ptr, ptr, ptr }
%struct._zend_call_stack = type { ptr, i64 }
%struct._zend_strtod_state = type { [8 x ptr], ptr, ptr }
%struct._zend_object_handlers = type { i32, ptr, ptr, ptr, ptr, ptr, ptr, ptr, ptr, ptr, ptr, ptr, ptr, ptr, ptr, ptr, ptr, ptr, ptr, ptr, ptr, ptr, ptr, ptr, ptr }
%struct._zend_execute_data = type { ptr, ptr, ptr, ptr, %struct._zval_struct, ptr, ptr, ptr, ptr }
%struct._phar_metadata_tracker = type { %struct._zval_struct, ptr }
%struct._phar_entry_info = type { i32, i32, i32, i32, i32, i32, %struct._phar_metadata_tracker, ptr, i32, i64, i64, i64, ptr, ptr, i32, ptr, ptr, ptr, i8, i32, i16, i16 }
%struct._zend_object = type { %struct._zend_refcounted_h, i32, i32, ptr, ptr, ptr, [1 x %struct._zval_struct] }

@executor_globals = external global %struct._zend_executor_globals, align 8
@spl_ce_BadMethodCallException = external global ptr, align 8
@.str.174 = private unnamed_addr constant [59 x i8] c"Cannot call method on an uninitialized PharFileInfo object\00", align 1

; Function Attrs: nounwind uwtable
define hidden void @zim_PharFileInfo_getCompressedSize(ptr noundef %0, ptr noundef %1) #0 {
  %3 = alloca ptr, align 8
  %4 = alloca ptr, align 8
  %5 = alloca ptr, align 8
  %6 = alloca ptr, align 8
  %7 = alloca i32, align 4
  %8 = alloca ptr, align 8
  store ptr %0, ptr %3, align 8, !tbaa !4
  store ptr %1, ptr %4, align 8, !tbaa !9
  %9 = load ptr, ptr %3, align 8, !tbaa !4
  %10 = getelementptr inbounds nuw %struct._zend_execute_data, ptr %9, i32 0, i32 4
  %11 = getelementptr inbounds nuw %struct._zval_struct, ptr %10, i32 0, i32 2
  %12 = load i32, ptr %11, align 4, !tbaa !13
  %13 = icmp eq i32 %12, 0
  %14 = xor i1 %13, true
  %15 = xor i1 %14, true
  %16 = zext i1 %15 to i32
  %17 = sext i32 %16 to i64
  %18 = call i64 @llvm.expect.i64(i64 %17, i64 1)
  %19 = icmp ne i64 %18, 0
  br i1 %19, label %20, label %21

20:                                               ; preds = %2
  br label %22

21:                                               ; preds = %2
  call void @zend_wrong_parameters_none_error()
  br label %22

22:                                               ; preds = %21, %20
  %23 = phi i32 [ 0, %20 ], [ -1, %21 ]
  %24 = icmp eq i32 %23, -1
  br i1 %24, label %25, label %30

25:                                               ; preds = %22
  br label %26

26:                                               ; preds = %25
  %27 = load ptr, ptr getelementptr inbounds nuw (%struct._zend_executor_globals, ptr @executor_globals, i32 0, i32 54), align 8, !tbaa !14
  %28 = icmp ne ptr %27, null
  call void @llvm.assume(i1 %28)
  br label %76

29:                                               ; No predecessors!
  br label %30

30:                                               ; preds = %29, %22
  call void @llvm.lifetime.start.p0(i64 8, ptr %5) #17
  %31 = load ptr, ptr %3, align 8, !tbaa !4
  %32 = getelementptr inbounds nuw %struct._zend_execute_data, ptr %31, i32 0, i32 4
  store ptr %32, ptr %5, align 8, !tbaa !9
  call void @llvm.lifetime.start.p0(i64 8, ptr %6) #17
  %33 = load ptr, ptr %5, align 8, !tbaa !9
  %34 = getelementptr inbounds nuw %struct._zval_struct, ptr %33, i32 0, i32 0
  %35 = load ptr, ptr %34, align 8, !tbaa !13
  %36 = load ptr, ptr %5, align 8, !tbaa !9
  %37 = getelementptr inbounds nuw %struct._zval_struct, ptr %36, i32 0, i32 0
  %38 = load ptr, ptr %37, align 8, !tbaa !13
  %39 = getelementptr inbounds nuw %struct._zend_object, ptr %38, i32 0, i32 4
  %40 = load ptr, ptr %39, align 8, !tbaa !118
  %41 = getelementptr inbounds nuw %struct._zend_object_handlers, ptr %40, i32 0, i32 0
  %42 = load i32, ptr %41, align 8, !tbaa !121
  %43 = sext i32 %42 to i64
  %44 = sub i64 0, %43
  %45 = getelementptr inbounds i8, ptr %35, i64 %44
  store ptr %45, ptr %6, align 8, !tbaa !234
  %46 = load ptr, ptr %6, align 8, !tbaa !234
  %47 = load ptr, ptr %46, align 8, !tbaa !13
  %48 = icmp ne ptr %47, null
  br i1 %48, label %57, label %49

49:                                               ; preds = %30
  %50 = load ptr, ptr @spl_ce_BadMethodCallException, align 8, !tbaa !53
  %51 = call ptr (ptr, i64, ptr, ...) @zend_throw_exception_ex(ptr noundef %50, i64 noundef 0, ptr noundef @.str.174)
  br label %52

52:                                               ; preds = %49
  %53 = load ptr, ptr getelementptr inbounds nuw (%struct._zend_executor_globals, ptr @executor_globals, i32 0, i32 54), align 8, !tbaa !14
  %54 = icmp ne ptr %53, null
  call void @llvm.assume(i1 %54)
  store i32 1, ptr %7, align 4
  br label %74

55:                                               ; No predecessors!
  br label %56

56:                                               ; preds = %55
  br label %57

57:                                               ; preds = %56, %30
  br label %58

58:                                               ; preds = %57
  br label %59

59:                                               ; preds = %58
  call void @llvm.lifetime.start.p0(i64 8, ptr %8) #17
  %60 = load ptr, ptr %4, align 8, !tbaa !9
  store ptr %60, ptr %8, align 8, !tbaa !9
  %61 = load ptr, ptr %6, align 8, !tbaa !234
  %62 = load ptr, ptr %61, align 8, !tbaa !13
  %63 = getelementptr inbounds nuw %struct._phar_entry_info, ptr %62, i32 0, i32 2
  %64 = load i32, ptr %63, align 8, !tbaa !181
  %65 = zext i32 %64 to i64
  %66 = load ptr, ptr %8, align 8, !tbaa !9
  %67 = getelementptr inbounds nuw %struct._zval_struct, ptr %66, i32 0, i32 0
  store i64 %65, ptr %67, align 8, !tbaa !13
  %68 = load ptr, ptr %8, align 8, !tbaa !9
  %69 = getelementptr inbounds nuw %struct._zval_struct, ptr %68, i32 0, i32 1
  store i32 4, ptr %69, align 8, !tbaa !13
  call void @llvm.lifetime.end.p0(i64 8, ptr %8) #17
  br label %70

70:                                               ; preds = %59
  br label %71

71:                                               ; preds = %70
  store i32 1, ptr %7, align 4
  br label %74

72:                                               ; No predecessors!
  br label %73

73:                                               ; preds = %72
  store i32 0, ptr %7, align 4
  br label %74

74:                                               ; preds = %73, %71, %52
  call void @llvm.lifetime.end.p0(i64 8, ptr %6) #17
  call void @llvm.lifetime.end.p0(i64 8, ptr %5) #17
  %75 = load i32, ptr %7, align 4
  switch i32 %75, label %77 [
    i32 0, label %76
    i32 1, label %76
  ]

76:                                               ; preds = %26, %74, %74
  ret void

77:                                               ; preds = %74
  unreachable
}